target datalayout = "e-m:e-p270:32:32-p271:32:32-p272:64:64-i64:64-i128:128-f80:128-n8:16:32:64-S128"
target triple = "x86_64-pc-linux-gnu"

%struct.TIDBitmap = type { i32, ptr, i32, ptr, i32, i32, i32, i32, i32, i32, %struct.PagetableEntry, ptr, ptr, i64, i64, i64, i64, ptr }
%struct.PagetableEntry = type { i32, i8, i8, i8, [5 x i64] }
%struct.pagetable_hash = type { i64, i32, i32, i32, ptr, ptr, ptr }
%struct.pagetable_iterator = type { i32, i32, i8 }

; Function Attrs: inlinehint nounwind uwtable
define internal ptr @pagetable_iterate(ptr noundef %0, ptr noundef %1) #2 {
  %3 = alloca ptr, align 8
  %4 = alloca ptr, align 8
  %5 = alloca ptr, align 8
  %6 = alloca ptr, align 8
  %7 = alloca i32, align 4
  store ptr %0, ptr %4, align 8
  store ptr %1, ptr %5, align 8
  br label %8

8:                                                ; preds = %62, %2
  %9 = load ptr, ptr %5, align 8
  %10 = getelementptr inbounds nuw %struct.pagetable_iterator, ptr %9, i32 0, i32 2
  %11 = load i8, ptr %10, align 4, !range !4, !noundef !5
  %12 = trunc i8 %11 to i1
  %13 = xor i1 %12, true
  br i1 %13, label %14, label %63

14:                                               ; preds = %8
  call void @llvm.lifetime.start.p0(i64 8, ptr %6) #9
  %15 = load ptr, ptr %4, align 8
  %16 = getelementptr inbounds nuw %struct.pagetable_hash, ptr %15, i32 0, i32 4
  %17 = load ptr, ptr %16, align 8
  %18 = load ptr, ptr %5, align 8
  %19 = getelementptr inbounds nuw %struct.pagetable_iterator, ptr %18, i32 0, i32 0
  %20 = load i32, ptr %19, align 4
  %21 = zext i32 %20 to i64
  %22 = getelementptr inbounds nuw %struct.PagetableEntry, ptr %17, i64 %21
  store ptr %22, ptr %6, align 8
  %23 = load ptr, ptr %5, align 8
  %24 = getelementptr inbounds nuw %struct.pagetable_iterator, ptr %23, i32 0, i32 0
  %25 = load i32, ptr %24, align 4
  %26 = sub i32 %25, 1
  %27 = load ptr, ptr %4, align 8
  %28 = getelementptr inbounds nuw %struct.pagetable_hash, ptr %27, i32 0, i32 2
  %29 = load i32, ptr %28, align 4
  %30 = and i32 %26, %29
  %31 = load ptr, ptr %5, align 8
  %32 = getelementptr inbounds nuw %struct.pagetable_iterator, ptr %31, i32 0, i32 0
  store i32 %30, ptr %32, align 4
  %33 = load ptr, ptr %5, align 8
  %34 = getelementptr inbounds nuw %struct.pagetable_iterator, ptr %33, i32 0, i32 0
  %35 = load i32, ptr %34, align 4
  %36 = load ptr, ptr %4, align 8
  %37 = getelementptr inbounds nuw %struct.pagetable_hash, ptr %36, i32 0, i32 2
  %38 = load i32, ptr %37, align 4
  %39 = and i32 %35, %38
  %40 = load ptr, ptr %5, align 8
  %41 = getelementptr inbounds nuw %struct.pagetable_iterator, ptr %40, i32 0, i32 1
  %42 = load i32, ptr %41, align 4
  %43 = load ptr, ptr %4, align 8
  %44 = getelementptr inbounds nuw %struct.pagetable_hash, ptr %43, i32 0, i32 2
  %45 = load i32, ptr %44, align 4
  %46 = and i32 %42, %45
  %47 = icmp eq i32 %39, %46
  br i1 %47, label %48, label %51

48:                                               ; preds = %14
  %49 = load ptr, ptr %5, align 8
  %50 = getelementptr inbounds nuw %struct.pagetable_iterator, ptr %49, i32 0, i32 2
  store i8 1, ptr %50, align 4
  br label %51

51:                                               ; preds = %48, %14
  %52 = load ptr, ptr %6, align 8
  %53 = getelementptr inbounds nuw %struct.PagetableEntry, ptr %52, i32 0, i32 1
  %54 = load i8, ptr %53, align 4
  %55 = sext i8 %54 to i32
  %56 = icmp eq i32 %55, 1
  br i1 %56, label %57, label %59

57:                                               ; preds = %51
  %58 = load ptr, ptr %6, align 8
  store ptr %58, ptr %3, align 8
  store i32 1, ptr %7, align 4
  br label %60

59:                                               ; preds = %51
  store i32 0, ptr %7, align 4
  br label %60

60:                                               ; preds = %59, %57
  call void @llvm.lifetime.end.p0(i64 8, ptr %6) #9
  %61 = load i32, ptr %7, align 4
  switch i32 %61, label %66 [
    i32 0, label %62
    i32 1, label %64
  ]

62:                                               ; preds = %60
  br label %8, !llvm.loop !17

63:                                               ; preds = %8
  store ptr null, ptr %3, align 8
  br label %64

64:                                               ; preds = %63, %60
  %65 = load ptr, ptr %3, align 8
  ret ptr %65

66:                                               ; preds = %60
  unreachable
}

; Function Attrs: inlinehint nounwind uwtable
define internal void @pagetable_start_iterate(ptr noundef %0, ptr noundef %1) #2 {
  %3 = alloca ptr, align 8
  %4 = alloca ptr, align 8
  %5 = alloca i64, align 8
  %6 = alloca i32, align 4
  %7 = alloca i32, align 4
  %8 = alloca ptr, align 8
  store ptr %0, ptr %3, align 8
  store ptr %1, ptr %4, align 8
  call void @llvm.lifetime.start.p0(i64 8, ptr %5) #9
  store i64 -1, ptr %5, align 8
  call void @llvm.lifetime.start.p0(i64 4, ptr %6) #9
  store i32 0, ptr %6, align 4
  br label %9

9:                                                ; preds = %36, %2
  %10 = load i32, ptr %6, align 4
  %11 = zext i32 %10 to i64
  %12 = load ptr, ptr %3, align 8
  %13 = getelementptr inbounds nuw %struct.pagetable_hash, ptr %12, i32 0, i32 0
  %14 = load i64, ptr %13, align 8
  %15 = icmp ult i64 %11, %14
  br i1 %15, label %17, label %16

16:                                               ; preds = %9
  store i32 2, ptr %7, align 4
  br label %39

17:                                               ; preds = %9
  call void @llvm.lifetime.start.p0(i64 8, ptr %8) #9
  %18 = load ptr, ptr %3, align 8
  %19 = getelementptr inbounds nuw %struct.pagetable_hash, ptr %18, i32 0, i32 4
  %20 = load ptr, ptr %19, align 8
  %21 = load i32, ptr %6, align 4
  %22 = zext i32 %21 to i64
  %23 = getelementptr inbounds nuw %struct.PagetableEntry, ptr %20, i64 %22
  store ptr %23, ptr %8, align 8
  %24 = load ptr, ptr %8, align 8
  %25 = getelementptr inbounds nuw %struct.PagetableEntry, ptr %24, i32 0, i32 1
  %26 = load i8, ptr %25, align 4
  %27 = sext i8 %26 to i32
  %28 = icmp ne i32 %27, 1
  br i1 %28, label %29, label %32

29:                                               ; preds = %17
  %30 = load i32, ptr %6, align 4
  %31 = zext i32 %30 to i64
  store i64 %31, ptr %5, align 8
  store i32 2, ptr %7, align 4
  br label %33

32:                                               ; preds = %17
  store i32 0, ptr %7, align 4
  br label %33

33:                                               ; preds = %32, %29
  call void @llvm.lifetime.end.p0(i64 8, ptr %8) #9
  %34 = load i32, ptr %7, align 4
  switch i32 %34, label %39 [
    i32 0, label %35
  ]

35:                                               ; preds = %33
  br label %36

36:                                               ; preds = %35
  %37 = load i32, ptr %6, align 4
  %38 = add i32 %37, 1
  store i32 %38, ptr %6, align 4
  br label %9, !llvm.loop !16

39:                                               ; preds = %33, %16
  call void @llvm.lifetime.end.p0(i64 4, ptr %6) #9
  br label %40

40:                                               ; preds = %39
  %41 = load i64, ptr %5, align 8
  %42 = trunc i64 %41 to i32
  %43 = load ptr, ptr %4, align 8
  %44 = getelementptr inbounds nuw %struct.pagetable_iterator, ptr %43, i32 0, i32 0
  store i32 %42, ptr %44, align 4
  %45 = load ptr, ptr %4, align 8
  %46 = getelementptr inbounds nuw %struct.pagetable_iterator, ptr %45, i32 0, i32 0
  %47 = load i32, ptr %46, align 4
  %48 = load ptr, ptr %4, align 8
  %49 = getelementptr inbounds nuw %struct.pagetable_iterator, ptr %48, i32 0, i32 1
  store i32 %47, ptr %49, align 4
  %50 = load ptr, ptr %4, align 8
  %51 = getelementptr inbounds nuw %struct.pagetable_iterator, ptr %50, i32 0, i32 2
  store i8 0, ptr %51, align 4
  call void @llvm.lifetime.end.p0(i64 8, ptr %5) #9
  ret void
}

; Function Attrs: nounwind uwtable
define dso_local void @tbm_union(ptr noundef %0, ptr noundef %1) #0 {
  %3 = alloca ptr, align 8
  %4 = alloca ptr, align 8
  %5 = alloca %struct.pagetable_iterator, align 4
  %6 = alloca ptr, align 8
  store ptr %0, ptr %3, align 8
  store ptr %1, ptr %4, align 8
  %7 = load ptr, ptr %4, align 8
  %8 = getelementptr inbounds nuw %struct.TIDBitmap, ptr %7, i32 0, i32 4
  %9 = load i32, ptr %8, align 8
  %10 = icmp eq i32 %9, 0
  br i1 %10, label %11, label %12

11:                                               ; preds = %2
  br label %35

12:                                               ; preds = %2
  %13 = load ptr, ptr %4, align 8
  %14 = getelementptr inbounds nuw %struct.TIDBitmap, ptr %13, i32 0, i32 2
  %15 = load i32, ptr %14, align 8
  %16 = icmp eq i32 %15, 1
  br i1 %16, label %17, label %21

17:                                               ; preds = %12
  %18 = load ptr, ptr %3, align 8
  %19 = load ptr, ptr %4, align 8
  %20 = getelementptr inbounds nuw %struct.TIDBitmap, ptr %19, i32 0, i32 10
  call void @tbm_union_page(ptr noundef %18, ptr noundef %20)
  br label %35

21:                                               ; preds = %12
  call void @llvm.lifetime.start.p0(i64 12, ptr %5) #9
  call void @llvm.lifetime.start.p0(i64 8, ptr %6) #9
  %22 = load ptr, ptr %4, align 8
  %23 = getelementptr inbounds nuw %struct.TIDBitmap, ptr %22, i32 0, i32 3
  %24 = load ptr, ptr %23, align 8
  call void @pagetable_start_iterate(ptr noundef %24, ptr noundef %5)
  br label %25

25:                                               ; preds = %31, %21
  %26 = load ptr, ptr %4, align 8
  %27 = getelementptr inbounds nuw %struct.TIDBitmap, ptr %26, i32 0, i32 3
  %28 = load ptr, ptr %27, align 8
  %29 = call ptr @pagetable_iterate(ptr noundef %28, ptr noundef %5)
  store ptr %29, ptr %6, align 8
  %30 = icmp ne ptr %29, null
  br i1 %30, label %31, label %34

31:                                               ; preds = %25
  %32 = load ptr, ptr %3, align 8
  %33 = load ptr, ptr %6, align 8
  call void @tbm_union_page(ptr noundef %32, ptr noundef %33)
  br label %25, !llvm.loop !12

34:                                               ; preds = %25
  call void @llvm.lifetime.end.p0(i64 8, ptr %6) #9
  call void @llvm.lifetime.end.p0(i64 12, ptr %5) #9
  br label %35

35:                                               ; preds = %11, %34, %17
  ret void
}