; Function Attrs: nounwind uwtable
define dso_local void @tbm_union(ptr noundef %0, ptr noundef readonly captures(none) %1) local_unnamed_addr #0 {
  %3 = getelementptr inbounds nuw i8, ptr %1, i64 32
  %4 = load i32, ptr %3, align 8
  %5 = icmp eq i32 %4, 0
  br i1 %5, label %.loopexit, label %6

6:                                                ; preds = %2
  %7 = getelementptr inbounds nuw i8, ptr %1, i64 16
  %8 = load i32, ptr %7, align 8
  %9 = icmp eq i32 %8, 1
  br i1 %9, label %10, label %12

10:                                               ; preds = %6
  %11 = getelementptr inbounds nuw i8, ptr %1, i64 56
  tail call fastcc void @tbm_union_page(ptr noundef %0, ptr noundef nonnull %11)
  br label %.loopexit

12:                                               ; preds = %6
  %13 = getelementptr inbounds nuw i8, ptr %1, i64 24
  %14 = load ptr, ptr %13, align 8
  %15 = load i64, ptr %14, align 8
  %.not18.i = icmp eq i64 %15, 0
  br i1 %.not18.i, label %pagetable_start_iterate.exit, label %.lr.ph.i

.lr.ph.i:                                         ; preds = %12
  %16 = getelementptr inbounds nuw i8, ptr %14, i64 24
  %17 = load ptr, ptr %16, align 8
  br label %18

18:                                               ; preds = %22, %.lr.ph.i
  %19 = phi i64 [ 0, %.lr.ph.i ], [ %24, %22 ]
  %.01315.i = phi i32 [ 0, %.lr.ph.i ], [ %23, %22 ]
  %20 = getelementptr inbounds nuw %struct.PagetableEntry, ptr %17, i64 %19, i32 1
  %21 = load i8, ptr %20, align 4
  %.not.i = icmp eq i8 %21, 1
  br i1 %.not.i, label %22, label %pagetable_start_iterate.exit

22:                                               ; preds = %18
  %23 = add i32 %.01315.i, 1
  %24 = zext i32 %23 to i64
  %25 = icmp ugt i64 %15, %24
  br i1 %25, label %18, label %pagetable_start_iterate.exit, !llvm.loop !9

pagetable_start_iterate.exit:                     ; preds = %18, %22, %12
  %.1.i = phi i32 [ -1, %12 ], [ %.01315.i, %18 ], [ -1, %22 ]
  br label %26

26:                                               ; preds = %pagetable_iterate.exit, %pagetable_start_iterate.exit
  %27 = phi ptr [ %14, %pagetable_start_iterate.exit ], [ %.pre, %pagetable_iterate.exit ]
  %.sroa.7.0 = phi i1 [ false, %pagetable_start_iterate.exit ], [ %spec.select, %pagetable_iterate.exit ]
  %.sroa.0.0 = phi i32 [ %.1.i, %pagetable_start_iterate.exit ], [ %38, %pagetable_iterate.exit ]
  %28 = getelementptr inbounds nuw i8, ptr %27, i64 24
  %29 = getelementptr inbounds nuw i8, ptr %27, i64 12
  br label %30

30:                                               ; preds = %32, %26
  %.sroa.7.1 = phi i1 [ %.sroa.7.0, %26 ], [ %spec.select, %32 ]
  %.sroa.0.1 = phi i32 [ %.sroa.0.0, %26 ], [ %38, %32 ]
  %31 = phi i1 [ %.sroa.7.0, %26 ], [ %41, %32 ]
  br i1 %31, label %.loopexit, label %32

32:                                               ; preds = %30
  %33 = load ptr, ptr %28, align 8
  %34 = zext i32 %.sroa.0.1 to i64
  %35 = getelementptr inbounds nuw %struct.PagetableEntry, ptr %33, i64 %34
  %36 = add i32 %.sroa.0.1, -1
  %37 = load i32, ptr %29, align 4
  %38 = and i32 %37, %36
  %39 = xor i32 %36, %.1.i
  %40 = and i32 %37, %39
  %41 = icmp eq i32 %40, 0
  %spec.select = select i1 %41, i1 true, i1 %.sroa.7.1
  %42 = getelementptr inbounds nuw i8, ptr %35, i64 4
  %43 = load i8, ptr %42, align 4
  %.not.i8 = icmp eq i8 %43, 1
  br i1 %.not.i8, label %pagetable_iterate.exit, label %30

pagetable_iterate.exit:                           ; preds = %32
  tail call fastcc void @tbm_union_page(ptr noundef %0, ptr noundef nonnull %35)
  %.pre = load ptr, ptr %13, align 8
  br label %26, !llvm.loop !10

.loopexit:                                        ; preds = %30, %2, %10
  ret void
}